target datalayout = "e-m:e-p270:32:32-p271:32:32-p272:64:64-i64:64-i128:128-f80:128-n8:16:32:64-S128"
target triple = "x86_64-pc-linux-gnu"

%struct.OPTARGS = type { i32, i32, i32, i32, ptr, ptr, ptr, ptr, ptr, i32, i32, ptr, [21 x i8], [256 x ptr], ptr, ptr, ptr, ptr }

@.str.37 = private unnamed_addr constant [4 x i8] c"END\00", align 1

; Function Attrs: mustprogress nounwind uwtable
define internal noundef i32 @_ZL7opt_eofP7OPTARGS(ptr noundef %0) #0 {
  %2 = alloca i32, align 4
  %3 = alloca ptr, align 8
  store ptr %0, ptr %3, align 8
  %4 = load ptr, ptr %3, align 8
  %5 = icmp eq ptr null, %4
  br i1 %5, label %6, label %7

6:                                                ; preds = %1
  store i32 1, ptr %2, align 4
  br label %12

7:                                                ; preds = %1
  %8 = load ptr, ptr %3, align 8
  %9 = getelementptr inbounds %struct.OPTARGS, ptr %8, i32 0, i32 8
  %10 = load ptr, ptr %9, align 8
  %11 = call i32 @feof(ptr noundef %10) #13
  store i32 %11, ptr %2, align 4
  br label %12

12:                                               ; preds = %7, %6
  %13 = load i32, ptr %2, align 4
  ret i32 %13
}

; Function Attrs: mustprogress uwtable
define internal noundef i32 @_ZL11opt_ordinalP7OPTARGSPKc(ptr noundef %0, ptr noundef %1) #1 {
  %3 = alloca i32, align 4
  %4 = alloca ptr, align 8
  %5 = alloca ptr, align 8
  %6 = alloca i32, align 4
  %7 = alloca ptr, align 8
  %8 = alloca ptr, align 8
  store ptr %0, ptr %4, align 8
  store ptr %1, ptr %5, align 8
  %9 = load ptr, ptr %4, align 8
  %10 = icmp eq ptr null, %9
  br i1 %10, label %11, label %12

11:                                               ; preds = %2
  store i32 0, ptr %3, align 4
  br label %240

12:                                               ; preds = %2
  %13 = load ptr, ptr %5, align 8
  %14 = icmp eq ptr null, %13
  br i1 %14, label %15, label %16

15:                                               ; preds = %12
  store i32 0, ptr %3, align 4
  br label %240

16:                                               ; preds = %12
  %17 = load ptr, ptr %5, align 8
  %18 = getelementptr inbounds i8, ptr %17, i64 0
  %19 = load i8, ptr %18, align 1
  %20 = sext i8 %19 to i32
  %21 = icmp eq i32 0, %20
  br i1 %21, label %22, label %23

22:                                               ; preds = %16
  store i32 0, ptr %3, align 4
  br label %240

23:                                               ; preds = %16
  %24 = load ptr, ptr %5, align 8
  %25 = call i64 @strlen(ptr noundef %24) #14
  %26 = icmp eq i64 %25, 1
  br i1 %26, label %27, label %44

27:                                               ; preds = %23
  %28 = load ptr, ptr %4, align 8
  %29 = getelementptr inbounds %struct.OPTARGS, ptr %28, i32 0, i32 13
  %30 = load ptr, ptr %5, align 8
  %31 = getelementptr inbounds i8, ptr %30, i64 0
  %32 = load i8, ptr %31, align 1
  %33 = sext i8 %32 to i32
  %34 = sext i32 %33 to i64
  %35 = getelementptr inbounds [256 x ptr], ptr %29, i64 0, i64 %34
  %36 = load ptr, ptr %35, align 8
  %37 = icmp eq ptr null, %36
  br i1 %37, label %38, label %39

38:                                               ; preds = %27
  store i32 0, ptr %3, align 4
  br label %240

39:                                               ; preds = %27
  %40 = load ptr, ptr %5, align 8
  %41 = getelementptr inbounds i8, ptr %40, i64 0
  %42 = load i8, ptr %41, align 1
  %43 = sext i8 %42 to i32
  store i32 %43, ptr %3, align 4
  br label %240

44:                                               ; preds = %23
  store i32 0, ptr %6, align 4
  br label %45

45:                                               ; preds = %138, %44
  %46 = load i32, ptr %6, align 4
  %47 = icmp slt i32 %46, 64
  br i1 %47, label %48, label %141

48:                                               ; preds = %45
  %49 = load ptr, ptr %4, align 8
  %50 = getelementptr inbounds %struct.OPTARGS, ptr %49, i32 0, i32 16
  %51 = load ptr, ptr %50, align 8
  store ptr %51, ptr %7, align 8
  %52 = load ptr, ptr %7, align 8
  %53 = icmp eq ptr null, %52
  br i1 %53, label %54, label %55

54:                                               ; preds = %48
  br label %141

55:                                               ; preds = %48
  %56 = load ptr, ptr %7, align 8
  %57 = load i32, ptr %6, align 4
  %58 = sext i32 %57 to i64
  %59 = getelementptr inbounds ptr, ptr %56, i64 %58
  %60 = load ptr, ptr %59, align 8
  %61 = icmp eq ptr null, %60
  br i1 %61, label %62, label %63

62:                                               ; preds = %55
  br label %141

63:                                               ; preds = %55
  %64 = load ptr, ptr %7, align 8
  %65 = load i32, ptr %6, align 4
  %66 = sext i32 %65 to i64
  %67 = getelementptr inbounds ptr, ptr %64, i64 %66
  %68 = load ptr, ptr %67, align 8
  %69 = call i32 @strcmp(ptr noundef %68, ptr noundef @.str.37) #14
  %70 = icmp eq i32 0, %69
  br i1 %70, label %71, label %72

71:                                               ; preds = %63
  br label %141

72:                                               ; preds = %63
  %73 = load ptr, ptr %7, align 8
  %74 = load i32, ptr %6, align 4
  %75 = sext i32 %74 to i64
  %76 = getelementptr inbounds ptr, ptr %73, i64 %75
  %77 = load ptr, ptr %76, align 8
  %78 = load ptr, ptr %5, align 8
  %79 = call i32 @strcmp(ptr noundef %77, ptr noundef %78) #14
  %80 = icmp eq i32 0, %79
  br i1 %80, label %81, label %84

81:                                               ; preds = %72
  %82 = load i32, ptr %6, align 4
  %83 = add nsw i32 128, %82
  store i32 %83, ptr %3, align 4
  br label %240

84:                                               ; preds = %72
  %85 = load ptr, ptr %7, align 8
  %86 = load i32, ptr %6, align 4
  %87 = sext i32 %86 to i64
  %88 = getelementptr inbounds ptr, ptr %85, i64 %87
  %89 = load ptr, ptr %88, align 8
  %90 = call i64 @strlen(ptr noundef %89) #14
  %91 = icmp ugt i64 %90, 2
  br i1 %91, label %92, label %137

92:                                               ; preds = %84
  %93 = load ptr, ptr %7, align 8
  %94 = load i32, ptr %6, align 4
  %95 = sext i32 %94 to i64
  %96 = getelementptr inbounds ptr, ptr %93, i64 %95
  %97 = load ptr, ptr %96, align 8
  %98 = getelementptr inbounds i8, ptr %97, i64 1
  %99 = load i8, ptr %98, align 1
  %100 = sext i8 %99 to i32
  %101 = icmp eq i32 %100, 61
  br i1 %101, label %102, label %137

102:                                              ; preds = %92
  %103 = load ptr, ptr %7, align 8
  %104 = load i32, ptr %6, align 4
  %105 = sext i32 %104 to i64
  %106 = getelementptr inbounds ptr, ptr %103, i64 %105
  %107 = load ptr, ptr %106, align 8
  %108 = getelementptr inbounds i8, ptr %107, i64 2
  %109 = load ptr, ptr %5, align 8
  %110 = call i32 @strcmp(ptr noundef %108, ptr noundef %109) #14
  %111 = icmp eq i32 0, %110
  br i1 %111, label %112, label %137

112:                                              ; preds = %102
  %113 = load ptr, ptr %4, align 8
  %114 = getelementptr inbounds %struct.OPTARGS, ptr %113, i32 0, i32 13
  %115 = load ptr, ptr %7, align 8
  %116 = load i32, ptr %6, align 4
  %117 = sext i32 %116 to i64
  %118 = getelementptr inbounds ptr, ptr %115, i64 %117
  %119 = load ptr, ptr %118, align 8
  %120 = getelementptr inbounds i8, ptr %119, i64 0
  %121 = load i8, ptr %120, align 1
  %122 = sext i8 %121 to i32
  %123 = sext i32 %122 to i64
  %124 = getelementptr inbounds [256 x ptr], ptr %114, i64 0, i64 %123
  %125 = load ptr, ptr %124, align 8
  %126 = icmp eq ptr null, %125
  br i1 %126, label %127, label %128

127:                                              ; preds = %112
  store i32 0, ptr %3, align 4
  br label %240

128:                                              ; preds = %112
  %129 = load ptr, ptr %7, align 8
  %130 = load i32, ptr %6, align 4
  %131 = sext i32 %130 to i64
  %132 = getelementptr inbounds ptr, ptr %129, i64 %131
  %133 = load ptr, ptr %132, align 8
  %134 = getelementptr inbounds i8, ptr %133, i64 0
  %135 = load i8, ptr %134, align 1
  %136 = sext i8 %135 to i32
  store i32 %136, ptr %3, align 4
  br label %240

137:                                              ; preds = %102, %92, %84
  br label %138

138:                                              ; preds = %137
  %139 = load i32, ptr %6, align 4
  %140 = add nsw i32 %139, 1
  store i32 %140, ptr %6, align 4
  br label %45, !llvm.loop !5

141:                                              ; preds = %71, %62, %54, %45
  store i32 0, ptr %6, align 4
  br label %142

142:                                              ; preds = %235, %141
  %143 = load i32, ptr %6, align 4
  %144 = icmp slt i32 %143, 64
  br i1 %144, label %145, label %238

145:                                              ; preds = %142
  %146 = load ptr, ptr %4, align 8
  %147 = getelementptr inbounds %struct.OPTARGS, ptr %146, i32 0, i32 17
  %148 = load ptr, ptr %147, align 8
  store ptr %148, ptr %8, align 8
  %149 = load ptr, ptr %8, align 8
  %150 = icmp eq ptr null, %149
  br i1 %150, label %151, label %152

151:                                              ; preds = %145
  store i32 0, ptr %3, align 4
  br label %240

152:                                              ; preds = %145
  %153 = load ptr, ptr %8, align 8
  %154 = load i32, ptr %6, align 4
  %155 = sext i32 %154 to i64
  %156 = getelementptr inbounds ptr, ptr %153, i64 %155
  %157 = load ptr, ptr %156, align 8
  %158 = icmp eq ptr null, %157
  br i1 %158, label %159, label %160

159:                                              ; preds = %152
  store i32 0, ptr %3, align 4
  br label %240

160:                                              ; preds = %152
  %161 = load ptr, ptr %8, align 8
  %162 = load i32, ptr %6, align 4
  %163 = sext i32 %162 to i64
  %164 = getelementptr inbounds ptr, ptr %161, i64 %163
  %165 = load ptr, ptr %164, align 8
  %166 = call i32 @strcmp(ptr noundef %165, ptr noundef @.str.37) #14
  %167 = icmp eq i32 0, %166
  br i1 %167, label %168, label %169

168:                                              ; preds = %160
  store i32 0, ptr %3, align 4
  br label %240

169:                                              ; preds = %160
  %170 = load ptr, ptr %8, align 8
  %171 = load i32, ptr %6, align 4
  %172 = sext i32 %171 to i64
  %173 = getelementptr inbounds ptr, ptr %170, i64 %172
  %174 = load ptr, ptr %173, align 8
  %175 = load ptr, ptr %5, align 8
  %176 = call i32 @strcmp(ptr noundef %174, ptr noundef %175) #14
  %177 = icmp eq i32 0, %176
  br i1 %177, label %178, label %181

178:                                              ; preds = %169
  %179 = load i32, ptr %6, align 4
  %180 = add nsw i32 192, %179
  store i32 %180, ptr %3, align 4
  br label %240

181:                                              ; preds = %169
  %182 = load ptr, ptr %8, align 8
  %183 = load i32, ptr %6, align 4
  %184 = sext i32 %183 to i64
  %185 = getelementptr inbounds ptr, ptr %182, i64 %184
  %186 = load ptr, ptr %185, align 8
  %187 = call i64 @strlen(ptr noundef %186) #14
  %188 = icmp ugt i64 %187, 2
  br i1 %188, label %189, label %234

189:                                              ; preds = %181
  %190 = load ptr, ptr %8, align 8
  %191 = load i32, ptr %6, align 4
  %192 = sext i32 %191 to i64
  %193 = getelementptr inbounds ptr, ptr %190, i64 %192
  %194 = load ptr, ptr %193, align 8
  %195 = getelementptr inbounds i8, ptr %194, i64 1
  %196 = load i8, ptr %195, align 1
  %197 = sext i8 %196 to i32
  %198 = icmp eq i32 %197, 61
  br i1 %198, label %199, label %234

199:                                              ; preds = %189
  %200 = load ptr, ptr %8, align 8
  %201 = load i32, ptr %6, align 4
  %202 = sext i32 %201 to i64
  %203 = getelementptr inbounds ptr, ptr %200, i64 %202
  %204 = load ptr, ptr %203, align 8
  %205 = getelementptr inbounds i8, ptr %204, i64 2
  %206 = load ptr, ptr %5, align 8
  %207 = call i32 @strcmp(ptr noundef %205, ptr noundef %206) #14
  %208 = icmp eq i32 0, %207
  br i1 %208, label %209, label %234

209:                                              ; preds = %199
  %210 = load ptr, ptr %4, align 8
  %211 = getelementptr inbounds %struct.OPTARGS, ptr %210, i32 0, i32 13
  %212 = load ptr, ptr %8, align 8
  %213 = load i32, ptr %6, align 4
  %214 = sext i32 %213 to i64
  %215 = getelementptr inbounds ptr, ptr %212, i64 %214
  %216 = load ptr, ptr %215, align 8
  %217 = getelementptr inbounds i8, ptr %216, i64 0
  %218 = load i8, ptr %217, align 1
  %219 = sext i8 %218 to i32
  %220 = sext i32 %219 to i64
  %221 = getelementptr inbounds [256 x ptr], ptr %211, i64 0, i64 %220
  %222 = load ptr, ptr %221, align 8
  %223 = icmp eq ptr null, %222
  br i1 %223, label %224, label %225

224:                                              ; preds = %209
  store i32 0, ptr %3, align 4
  br label %240

225:                                              ; preds = %209
  %226 = load ptr, ptr %8, align 8
  %227 = load i32, ptr %6, align 4
  %228 = sext i32 %227 to i64
  %229 = getelementptr inbounds ptr, ptr %226, i64 %228
  %230 = load ptr, ptr %229, align 8
  %231 = getelementptr inbounds i8, ptr %230, i64 0
  %232 = load i8, ptr %231, align 1
  %233 = sext i8 %232 to i32
  store i32 %233, ptr %3, align 4
  br label %240

234:                                              ; preds = %199, %189, %181
  br label %235

235:                                              ; preds = %234
  %236 = load i32, ptr %6, align 4
  %237 = add nsw i32 %236, 1
  store i32 %237, ptr %6, align 4
  br label %142, !llvm.loop !7

238:                                              ; preds = %142
  %239 = call noundef i32 @_ZL7opt_eofP7OPTARGS(ptr noundef null)
  store i32 0, ptr %3, align 4
  br label %240

240:                                              ; preds = %238, %225, %224, %178, %168, %159, %151, %128, %127, %81, %39, %38, %22, %15, %11
  %241 = load i32, ptr %3, align 4
  ret i32 %241
}